; Function Attrs: nounwind uwtable
define internal ptr @_destroy(ptr noundef readonly captures(none) %0, ptr noundef %1) #0 {
  %3 = getelementptr i8, ptr %0, i64 16
  %.val = load ptr, ptr %3, align 8, !tbaa !56
  %4 = icmp eq ptr %.val, @_Py_NoneStruct
  br i1 %4, label %_PyWeakref_GET_REF.exit.thread, label %5

5:                                                ; preds = %2
  %.val.i.i = load i32, ptr %.val, align 8, !tbaa !17
  %.not.i.i = icmp eq i32 %.val.i.i, 0
  br i1 %.not.i.i, label %_PyWeakref_GET_REF.exit.thread, label %6

6:                                                ; preds = %5
  %7 = icmp slt i32 %.val.i.i, 0
  br i1 %7, label %_PyWeakref_GET_REF.exit, label %8

8:                                                ; preds = %6
  %9 = add nuw i32 %.val.i.i, 1
  store i32 %9, ptr %.val, align 8, !tbaa !17
  br label %_PyWeakref_GET_REF.exit

_PyWeakref_GET_REF.exit:                          ; preds = %8, %6
  %10 = tail call i32 @PySet_Discard(ptr noundef nonnull %.val, ptr noundef %1) #4
  %11 = icmp slt i32 %10, 0
  %12 = load i32, ptr %.val, align 8, !tbaa !17
  %.not.i = icmp sgt i32 %12, -1
  br i1 %.not.i, label %13, label %Py_DECREF.exit

13:                                               ; preds = %_PyWeakref_GET_REF.exit
  %14 = add nsw i32 %12, -1
  store i32 %14, ptr %.val, align 8, !tbaa !17
  %15 = icmp eq i32 %14, 0
  br i1 %15, label %16, label %Py_DECREF.exit

16:                                               ; preds = %13
  tail call void @_Py_Dealloc(ptr noundef nonnull %.val) #4
  br label %Py_DECREF.exit

Py_DECREF.exit:                                   ; preds = %_PyWeakref_GET_REF.exit, %13, %16
  %._Py_NoneStruct = select i1 %11, ptr null, ptr @_Py_NoneStruct
  br label %_PyWeakref_GET_REF.exit.thread

_PyWeakref_GET_REF.exit.thread:                   ; preds = %5, %2, %Py_DECREF.exit
  %.0 = phi ptr [ %._Py_NoneStruct, %Py_DECREF.exit ], [ @_Py_NoneStruct, %2 ], [ @_Py_NoneStruct, %5 ]
  ret ptr %.0
}